; Function Attrs: mustprogress uwtable
define dso_local void @_ZN9btBvhTree10build_treeER18GIM_BVH_DATA_ARRAY(ptr noundef nonnull align 8 dereferenceable(40) initializes((0, 4)) %0, ptr noundef nonnull align 8 dereferenceable(25) %1) local_unnamed_addr #5 align 2 {
  store i32 0, ptr %0, align 8, !tbaa !28
  %3 = getelementptr inbounds nuw i8, ptr %1, i64 4
  %4 = load i32, ptr %3, align 4, !tbaa !39
  %5 = shl nsw i32 %4, 1
  %6 = getelementptr inbounds nuw i8, ptr %0, i64 12
  %7 = load i32, ptr %6, align 4, !tbaa !40
  %8 = icmp sgt i32 %5, %7
  br i1 %8, label %9, label %_ZN20btAlignedObjectArrayI17GIM_BVH_TREE_NODEE6resizeEiRKS0_.exit

9:                                                ; preds = %2
  %10 = getelementptr inbounds nuw i8, ptr %0, i64 16
  %11 = load i32, ptr %10, align 8, !tbaa !41
  %12 = icmp slt i32 %11, %5
  br i1 %12, label %13, label %.lr.ph.i

13:                                               ; preds = %9
  %.not.i.i.i = icmp eq i32 %4, 0
  br i1 %.not.i.i.i, label %_ZN20btAlignedObjectArrayI17GIM_BVH_TREE_NODEE8allocateEi.exit.i.i, label %14

14:                                               ; preds = %13
  %15 = sext i32 %5 to i64
  %16 = mul nsw i64 %15, 36
  %17 = tail call noundef ptr @_Z22btAlignedAllocInternalmi(i64 noundef %16, i32 noundef 16)
  %.pre.i = load i32, ptr %6, align 4, !tbaa !40
  br label %_ZN20btAlignedObjectArrayI17GIM_BVH_TREE_NODEE8allocateEi.exit.i.i

_ZN20btAlignedObjectArrayI17GIM_BVH_TREE_NODEE8allocateEi.exit.i.i: ; preds = %14, %13
  %18 = phi i32 [ %.pre.i, %14 ], [ %7, %13 ]
  %.0.i.i.i = phi ptr [ %17, %14 ], [ null, %13 ]
  %19 = icmp sgt i32 %18, 0
  br i1 %19, label %.lr.ph.i.i.i, label %_ZNK20btAlignedObjectArrayI17GIM_BVH_TREE_NODEE4copyEiiPS0_.exit.i.i

.lr.ph.i.i.i:                                     ; preds = %_ZN20btAlignedObjectArrayI17GIM_BVH_TREE_NODEE8allocateEi.exit.i.i
  %20 = getelementptr inbounds nuw i8, ptr %0, i64 24
  %wide.trip.count.i.i.i = zext nneg i32 %18 to i64
  br label %21

21:                                               ; preds = %21, %.lr.ph.i.i.i
  %indvars.iv.i.i.i = phi i64 [ 0, %.lr.ph.i.i.i ], [ %indvars.iv.next.i.i.i, %21 ]
  %22 = getelementptr inbounds nuw %class.GIM_BVH_TREE_NODE, ptr %.0.i.i.i, i64 %indvars.iv.i.i.i
  %23 = load ptr, ptr %20, align 8, !tbaa !34
  %24 = getelementptr inbounds nuw %class.GIM_BVH_TREE_NODE, ptr %23, i64 %indvars.iv.i.i.i
  tail call void @llvm.memcpy.p0.p0.i64(ptr noundef nonnull align 4 dereferenceable(36) %22, ptr noundef nonnull align 4 dereferenceable(36) %24, i64 16, i1 false), !tbaa.struct !19
  %25 = getelementptr inbounds nuw i8, ptr %22, i64 16
  %26 = getelementptr inbounds nuw i8, ptr %24, i64 16
  tail call void @llvm.memcpy.p0.p0.i64(ptr noundef nonnull align 4 dereferenceable(16) %25, ptr noundef nonnull align 4 dereferenceable(16) %26, i64 16, i1 false), !tbaa.struct !19
  %27 = getelementptr inbounds nuw i8, ptr %22, i64 32
  %28 = getelementptr inbounds nuw i8, ptr %24, i64 32
  %29 = load i32, ptr %28, align 4, !tbaa !36
  store i32 %29, ptr %27, align 4, !tbaa !36
  %indvars.iv.next.i.i.i = add nuw nsw i64 %indvars.iv.i.i.i, 1
  %exitcond.not.i.i.i = icmp eq i64 %indvars.iv.next.i.i.i, %wide.trip.count.i.i.i
  br i1 %exitcond.not.i.i.i, label %_ZNK20btAlignedObjectArrayI17GIM_BVH_TREE_NODEE4copyEiiPS0_.exit.i.i, label %21, !llvm.loop !42

_ZNK20btAlignedObjectArrayI17GIM_BVH_TREE_NODEE4copyEiiPS0_.exit.i.i: ; preds = %21, %_ZN20btAlignedObjectArrayI17GIM_BVH_TREE_NODEE8allocateEi.exit.i.i
  %30 = getelementptr inbounds nuw i8, ptr %0, i64 24
  %31 = load ptr, ptr %30, align 8, !tbaa !34
  %.not.i5.i.i = icmp eq ptr %31, null
  br i1 %.not.i5.i.i, label %_ZN20btAlignedObjectArrayI17GIM_BVH_TREE_NODEE7reserveEi.exit.i, label %32

32:                                               ; preds = %_ZNK20btAlignedObjectArrayI17GIM_BVH_TREE_NODEE4copyEiiPS0_.exit.i.i
  %33 = getelementptr inbounds nuw i8, ptr %0, i64 32
  %34 = load i8, ptr %33, align 8, !tbaa !43, !range !44, !noundef !45
  %35 = trunc nuw i8 %34 to i1
  br i1 %35, label %36, label %_ZN20btAlignedObjectArrayI17GIM_BVH_TREE_NODEE7reserveEi.exit.i

36:                                               ; preds = %32
  tail call void @_Z21btAlignedFreeInternalPv(ptr noundef nonnull %31)
  br label %_ZN20btAlignedObjectArrayI17GIM_BVH_TREE_NODEE7reserveEi.exit.i

_ZN20btAlignedObjectArrayI17GIM_BVH_TREE_NODEE7reserveEi.exit.i: ; preds = %36, %32, %_ZNK20btAlignedObjectArrayI17GIM_BVH_TREE_NODEE4copyEiiPS0_.exit.i.i
  %37 = getelementptr inbounds nuw i8, ptr %0, i64 32
  store i8 1, ptr %37, align 8, !tbaa !43
  store ptr %.0.i.i.i, ptr %30, align 8, !tbaa !34
  store i32 %5, ptr %10, align 8, !tbaa !41
  br label %.lr.ph.i

.lr.ph.i:                                         ; preds = %_ZN20btAlignedObjectArrayI17GIM_BVH_TREE_NODEE7reserveEi.exit.i, %9
  %38 = getelementptr inbounds nuw i8, ptr %0, i64 24
  %39 = sext i32 %7 to i64
  %wide.trip.count.i = sext i32 %5 to i64
  %40 = load ptr, ptr %38, align 8, !tbaa !34
  %invariant.gep = getelementptr i8, ptr %40, i64 32
  br label %41

41:                                               ; preds = %41, %.lr.ph.i
  %indvars.iv.i = phi i64 [ %39, %.lr.ph.i ], [ %indvars.iv.next.i, %41 ]
  %gep = getelementptr %class.GIM_BVH_TREE_NODE, ptr %invariant.gep, i64 %indvars.iv.i
  store i32 0, ptr %gep, align 4, !tbaa !36
  %indvars.iv.next.i = add nsw i64 %indvars.iv.i, 1
  %exitcond.not.i = icmp eq i64 %indvars.iv.next.i, %wide.trip.count.i
  br i1 %exitcond.not.i, label %_ZN20btAlignedObjectArrayI17GIM_BVH_TREE_NODEE6resizeEiRKS0_.exit.loopexit, label %41, !llvm.loop !46

_ZN20btAlignedObjectArrayI17GIM_BVH_TREE_NODEE6resizeEiRKS0_.exit.loopexit: ; preds = %41
  %.pre = load i32, ptr %3, align 4, !tbaa !39
  br label %_ZN20btAlignedObjectArrayI17GIM_BVH_TREE_NODEE6resizeEiRKS0_.exit

_ZN20btAlignedObjectArrayI17GIM_BVH_TREE_NODEE6resizeEiRKS0_.exit: ; preds = %_ZN20btAlignedObjectArrayI17GIM_BVH_TREE_NODEE6resizeEiRKS0_.exit.loopexit, %2
  %42 = phi i32 [ %.pre, %_ZN20btAlignedObjectArrayI17GIM_BVH_TREE_NODEE6resizeEiRKS0_.exit.loopexit ], [ %4, %2 ]
  store i32 %5, ptr %6, align 4, !tbaa !40
  tail call void @_ZN9btBvhTree15_build_sub_treeER18GIM_BVH_DATA_ARRAYii(ptr noundef nonnull align 8 dereferenceable(40) %0, ptr noundef nonnull align 8 dereferenceable(25) %1, i32 noundef 0, i32 noundef %42)
  ret void
}